target datalayout = "e-m:e-p270:32:32-p271:32:32-p272:64:64-i64:64-i128:128-f80:128-n8:16:32:64-S128"
target triple = "x86_64-pc-linux-gnu"

%struct.stbrp_context = type { i32, i32, i32, i32, i32, i32, ptr, ptr, [2 x %struct.stbrp_node] }
%struct.stbrp_node = type { i32, i32, ptr }
%struct.stbrp__findresult = type { i32, i32, ptr }

; Function Attrs: nounwind uwtable
define { i64, ptr } @stbrp__skyline_pack_rectangle(ptr noundef %0, i32 noundef %1, i32 noundef %2) #0 {
  %4 = alloca %struct.stbrp__findresult, align 8
  %5 = alloca ptr, align 8
  %6 = alloca i32, align 4
  %7 = alloca i32, align 4
  %8 = alloca ptr, align 8
  %9 = alloca ptr, align 8
  %10 = alloca i32, align 4
  %11 = alloca ptr, align 8
  %12 = alloca ptr, align 8
  store ptr %0, ptr %5, align 8, !tbaa !3
  store i32 %1, ptr %6, align 4, !tbaa !8
  store i32 %2, ptr %7, align 4, !tbaa !8
  %13 = load ptr, ptr %5, align 8, !tbaa !3
  %14 = load i32, ptr %6, align 4, !tbaa !8
  %15 = load i32, ptr %7, align 4, !tbaa !8
  %16 = call { i64, ptr } @stbrp__skyline_find_best_pos(ptr noundef %13, i32 noundef %14, i32 noundef %15)
  %17 = getelementptr inbounds nuw { i64, ptr }, ptr %4, i32 0, i32 0
  %18 = extractvalue { i64, ptr } %16, 0
  store i64 %18, ptr %17, align 8
  %19 = getelementptr inbounds nuw { i64, ptr }, ptr %4, i32 0, i32 1
  %20 = extractvalue { i64, ptr } %16, 1
  store ptr %20, ptr %19, align 8
  call void @llvm.lifetime.start.p0(i64 8, ptr %8) #3
  call void @llvm.lifetime.start.p0(i64 8, ptr %9) #3
  %21 = getelementptr inbounds nuw %struct.stbrp__findresult, ptr %4, i32 0, i32 2
  %22 = load ptr, ptr %21, align 8, !tbaa !32
  %23 = icmp eq ptr %22, null
  br i1 %23, label %38, label %24

24:                                               ; preds = %3
  %25 = getelementptr inbounds nuw %struct.stbrp__findresult, ptr %4, i32 0, i32 1
  %26 = load i32, ptr %25, align 4, !tbaa !34
  %27 = load i32, ptr %7, align 4, !tbaa !8
  %28 = add nsw i32 %26, %27
  %29 = load ptr, ptr %5, align 8, !tbaa !3
  %30 = getelementptr inbounds nuw %struct.stbrp_context, ptr %29, i32 0, i32 1
  %31 = load i32, ptr %30, align 4, !tbaa !24
  %32 = icmp sgt i32 %28, %31
  br i1 %32, label %38, label %33

33:                                               ; preds = %24
  %34 = load ptr, ptr %5, align 8, !tbaa !3
  %35 = getelementptr inbounds nuw %struct.stbrp_context, ptr %34, i32 0, i32 7
  %36 = load ptr, ptr %35, align 8, !tbaa !22
  %37 = icmp eq ptr %36, null
  br i1 %37, label %38, label %40

38:                                               ; preds = %33, %24, %3
  %39 = getelementptr inbounds nuw %struct.stbrp__findresult, ptr %4, i32 0, i32 2
  store ptr null, ptr %39, align 8, !tbaa !32
  store i32 1, ptr %10, align 4
  br label %132

40:                                               ; preds = %33
  %41 = load ptr, ptr %5, align 8, !tbaa !3
  %42 = getelementptr inbounds nuw %struct.stbrp_context, ptr %41, i32 0, i32 7
  %43 = load ptr, ptr %42, align 8, !tbaa !22
  store ptr %43, ptr %8, align 8, !tbaa !17
  %44 = getelementptr inbounds nuw %struct.stbrp__findresult, ptr %4, i32 0, i32 0
  %45 = load i32, ptr %44, align 8, !tbaa !35
  %46 = load ptr, ptr %8, align 8, !tbaa !17
  %47 = getelementptr inbounds nuw %struct.stbrp_node, ptr %46, i32 0, i32 0
  store i32 %45, ptr %47, align 8, !tbaa !25
  %48 = getelementptr inbounds nuw %struct.stbrp__findresult, ptr %4, i32 0, i32 1
  %49 = load i32, ptr %48, align 4, !tbaa !34
  %50 = load i32, ptr %7, align 4, !tbaa !8
  %51 = add nsw i32 %49, %50
  %52 = load ptr, ptr %8, align 8, !tbaa !17
  %53 = getelementptr inbounds nuw %struct.stbrp_node, ptr %52, i32 0, i32 1
  store i32 %51, ptr %53, align 4, !tbaa !26
  %54 = load ptr, ptr %8, align 8, !tbaa !17
  %55 = getelementptr inbounds nuw %struct.stbrp_node, ptr %54, i32 0, i32 2
  %56 = load ptr, ptr %55, align 8, !tbaa !18
  %57 = load ptr, ptr %5, align 8, !tbaa !3
  %58 = getelementptr inbounds nuw %struct.stbrp_context, ptr %57, i32 0, i32 7
  store ptr %56, ptr %58, align 8, !tbaa !22
  %59 = getelementptr inbounds nuw %struct.stbrp__findresult, ptr %4, i32 0, i32 2
  %60 = load ptr, ptr %59, align 8, !tbaa !32
  %61 = load ptr, ptr %60, align 8, !tbaa !17
  store ptr %61, ptr %9, align 8, !tbaa !17
  %62 = load ptr, ptr %9, align 8, !tbaa !17
  %63 = getelementptr inbounds nuw %struct.stbrp_node, ptr %62, i32 0, i32 0
  %64 = load i32, ptr %63, align 8, !tbaa !25
  %65 = getelementptr inbounds nuw %struct.stbrp__findresult, ptr %4, i32 0, i32 0
  %66 = load i32, ptr %65, align 8, !tbaa !35
  %67 = icmp slt i32 %64, %66
  br i1 %67, label %68, label %76

68:                                               ; preds = %40
  call void @llvm.lifetime.start.p0(i64 8, ptr %11) #3
  %69 = load ptr, ptr %9, align 8, !tbaa !17
  %70 = getelementptr inbounds nuw %struct.stbrp_node, ptr %69, i32 0, i32 2
  %71 = load ptr, ptr %70, align 8, !tbaa !18
  store ptr %71, ptr %11, align 8, !tbaa !17
  %72 = load ptr, ptr %8, align 8, !tbaa !17
  %73 = load ptr, ptr %9, align 8, !tbaa !17
  %74 = getelementptr inbounds nuw %struct.stbrp_node, ptr %73, i32 0, i32 2
  store ptr %72, ptr %74, align 8, !tbaa !18
  %75 = load ptr, ptr %11, align 8, !tbaa !17
  store ptr %75, ptr %9, align 8, !tbaa !17
  call void @llvm.lifetime.end.p0(i64 8, ptr %11) #3
  br label %80

76:                                               ; preds = %40
  %77 = load ptr, ptr %8, align 8, !tbaa !17
  %78 = getelementptr inbounds nuw %struct.stbrp__findresult, ptr %4, i32 0, i32 2
  %79 = load ptr, ptr %78, align 8, !tbaa !32
  store ptr %77, ptr %79, align 8, !tbaa !17
  br label %80

80:                                               ; preds = %76, %68
  br label %81

81:                                               ; preds = %99, %80
  %82 = load ptr, ptr %9, align 8, !tbaa !17
  %83 = getelementptr inbounds nuw %struct.stbrp_node, ptr %82, i32 0, i32 2
  %84 = load ptr, ptr %83, align 8, !tbaa !18
  %85 = icmp ne ptr %84, null
  br i1 %85, label %86, label %97

86:                                               ; preds = %81
  %87 = load ptr, ptr %9, align 8, !tbaa !17
  %88 = getelementptr inbounds nuw %struct.stbrp_node, ptr %87, i32 0, i32 2
  %89 = load ptr, ptr %88, align 8, !tbaa !18
  %90 = getelementptr inbounds nuw %struct.stbrp_node, ptr %89, i32 0, i32 0
  %91 = load i32, ptr %90, align 8, !tbaa !25
  %92 = getelementptr inbounds nuw %struct.stbrp__findresult, ptr %4, i32 0, i32 0
  %93 = load i32, ptr %92, align 8, !tbaa !35
  %94 = load i32, ptr %6, align 4, !tbaa !8
  %95 = add nsw i32 %93, %94
  %96 = icmp sle i32 %91, %95
  br label %97

97:                                               ; preds = %86, %81
  %98 = phi i1 [ false, %81 ], [ %96, %86 ]
  br i1 %98, label %99, label %112

99:                                               ; preds = %97
  call void @llvm.lifetime.start.p0(i64 8, ptr %12) #3
  %100 = load ptr, ptr %9, align 8, !tbaa !17
  %101 = getelementptr inbounds nuw %struct.stbrp_node, ptr %100, i32 0, i32 2
  %102 = load ptr, ptr %101, align 8, !tbaa !18
  store ptr %102, ptr %12, align 8, !tbaa !17
  %103 = load ptr, ptr %5, align 8, !tbaa !3
  %104 = getelementptr inbounds nuw %struct.stbrp_context, ptr %103, i32 0, i32 7
  %105 = load ptr, ptr %104, align 8, !tbaa !22
  %106 = load ptr, ptr %9, align 8, !tbaa !17
  %107 = getelementptr inbounds nuw %struct.stbrp_node, ptr %106, i32 0, i32 2
  store ptr %105, ptr %107, align 8, !tbaa !18
  %108 = load ptr, ptr %9, align 8, !tbaa !17
  %109 = load ptr, ptr %5, align 8, !tbaa !3
  %110 = getelementptr inbounds nuw %struct.stbrp_context, ptr %109, i32 0, i32 7
  store ptr %108, ptr %110, align 8, !tbaa !22
  %111 = load ptr, ptr %12, align 8, !tbaa !17
  store ptr %111, ptr %9, align 8, !tbaa !17
  call void @llvm.lifetime.end.p0(i64 8, ptr %12) #3
  br label %81, !llvm.loop !40

112:                                              ; preds = %97
  %113 = load ptr, ptr %9, align 8, !tbaa !17
  %114 = load ptr, ptr %8, align 8, !tbaa !17
  %115 = getelementptr inbounds nuw %struct.stbrp_node, ptr %114, i32 0, i32 2
  store ptr %113, ptr %115, align 8, !tbaa !18
  %116 = load ptr, ptr %9, align 8, !tbaa !17
  %117 = getelementptr inbounds nuw %struct.stbrp_node, ptr %116, i32 0, i32 0
  %118 = load i32, ptr %117, align 8, !tbaa !25
  %119 = getelementptr inbounds nuw %struct.stbrp__findresult, ptr %4, i32 0, i32 0
  %120 = load i32, ptr %119, align 8, !tbaa !35
  %121 = load i32, ptr %6, align 4, !tbaa !8
  %122 = add nsw i32 %120, %121
  %123 = icmp slt i32 %118, %122
  br i1 %123, label %124, label %131

124:                                              ; preds = %112
  %125 = getelementptr inbounds nuw %struct.stbrp__findresult, ptr %4, i32 0, i32 0
  %126 = load i32, ptr %125, align 8, !tbaa !35
  %127 = load i32, ptr %6, align 4, !tbaa !8
  %128 = add nsw i32 %126, %127
  %129 = load ptr, ptr %9, align 8, !tbaa !17
  %130 = getelementptr inbounds nuw %struct.stbrp_node, ptr %129, i32 0, i32 0
  store i32 %128, ptr %130, align 8, !tbaa !25
  br label %131

131:                                              ; preds = %124, %112
  store i32 1, ptr %10, align 4
  br label %132

132:                                              ; preds = %131, %38
  call void @llvm.lifetime.end.p0(i64 8, ptr %9) #3
  call void @llvm.lifetime.end.p0(i64 8, ptr %8) #3
  %133 = load { i64, ptr }, ptr %4, align 8
  ret { i64, ptr } %133
}