; Function Attrs: nofree norecurse nosync nounwind memory(readwrite, inaccessiblemem: none) uwtable
define { i64, ptr } @stbrp__skyline_pack_rectangle(ptr noundef %0, i32 noundef %1, i32 noundef %2) local_unnamed_addr #4 {
  %4 = tail call { i64, ptr } @stbrp__skyline_find_best_pos(ptr noundef %0, i32 noundef %1, i32 noundef %2)
  %5 = extractvalue { i64, ptr } %4, 0
  %.sroa.0.0.extract.trunc = trunc i64 %5 to i32
  %6 = extractvalue { i64, ptr } %4, 1
  %7 = icmp eq ptr %6, null
  br i1 %7, label %41, label %8

8:                                                ; preds = %3
  %.sroa.7.0.extract.shift = lshr i64 %5, 32
  %.sroa.7.0.extract.trunc = trunc nuw i64 %.sroa.7.0.extract.shift to i32
  %9 = add nsw i32 %2, %.sroa.7.0.extract.trunc
  %10 = getelementptr inbounds nuw i8, ptr %0, i64 4
  %11 = load i32, ptr %10, align 4, !tbaa !20
  %12 = icmp sgt i32 %9, %11
  br i1 %12, label %41, label %13

13:                                               ; preds = %8
  %14 = getelementptr inbounds nuw i8, ptr %0, i64 32
  %15 = load ptr, ptr %14, align 8, !tbaa !18
  %16 = icmp eq ptr %15, null
  br i1 %16, label %41, label %17

17:                                               ; preds = %13
  store i32 %.sroa.0.0.extract.trunc, ptr %15, align 8, !tbaa !21
  %18 = getelementptr inbounds nuw i8, ptr %15, i64 4
  store i32 %9, ptr %18, align 4, !tbaa !22
  %19 = getelementptr inbounds nuw i8, ptr %15, i64 8
  %20 = load ptr, ptr %19, align 8, !tbaa !14
  store ptr %20, ptr %14, align 8, !tbaa !18
  %21 = load ptr, ptr %6, align 8, !tbaa !26
  %22 = load i32, ptr %21, align 8, !tbaa !21
  %23 = icmp slt i32 %22, %.sroa.0.0.extract.trunc
  br i1 %23, label %24, label %27

24:                                               ; preds = %17
  %25 = getelementptr inbounds nuw i8, ptr %21, i64 8
  %26 = load ptr, ptr %25, align 8, !tbaa !14
  store ptr %15, ptr %25, align 8, !tbaa !14
  br label %28

27:                                               ; preds = %17
  store ptr %15, ptr %6, align 8, !tbaa !26
  br label %28

28:                                               ; preds = %27, %24
  %.0 = phi ptr [ %26, %24 ], [ %21, %27 ]
  %29 = getelementptr inbounds nuw i8, ptr %.0, i64 8
  %30 = load ptr, ptr %29, align 8, !tbaa !14
  %.not45 = icmp eq ptr %30, null
  %.pre = add nsw i32 %1, %.sroa.0.0.extract.trunc
  br i1 %.not45, label %.critedge, label %.lr.ph

.lr.ph:                                           ; preds = %28, %34
  %31 = phi ptr [ %37, %34 ], [ %30, %28 ]
  %32 = phi ptr [ %36, %34 ], [ %29, %28 ]
  %.146 = phi ptr [ %31, %34 ], [ %.0, %28 ]
  %33 = load i32, ptr %31, align 8, !tbaa !21
  %.not44 = icmp sgt i32 %33, %.pre
  br i1 %.not44, label %.critedge, label %34

34:                                               ; preds = %.lr.ph
  %35 = load ptr, ptr %14, align 8, !tbaa !18
  store ptr %35, ptr %32, align 8, !tbaa !14
  store ptr %.146, ptr %14, align 8, !tbaa !18
  %36 = getelementptr inbounds nuw i8, ptr %31, i64 8
  %37 = load ptr, ptr %36, align 8, !tbaa !14
  %.not = icmp eq ptr %37, null
  br i1 %.not, label %.critedge, label %.lr.ph, !llvm.loop !30

.critedge:                                        ; preds = %.lr.ph, %34, %28
  %.1.lcssa = phi ptr [ %.0, %28 ], [ %31, %34 ], [ %.146, %.lr.ph ]
  store ptr %.1.lcssa, ptr %19, align 8, !tbaa !14
  %38 = load i32, ptr %.1.lcssa, align 8, !tbaa !21
  %39 = icmp slt i32 %38, %.pre
  br i1 %39, label %40, label %41

40:                                               ; preds = %.critedge
  store i32 %.pre, ptr %.1.lcssa, align 8, !tbaa !21
  br label %41

41:                                               ; preds = %.critedge, %40, %3, %8, %13
  %.sroa.9.0 = phi ptr [ null, %13 ], [ null, %8 ], [ null, %3 ], [ %6, %40 ], [ %6, %.critedge ]
  %.fca.1.insert = insertvalue { i64, ptr } %4, ptr %.sroa.9.0, 1
  ret { i64, ptr } %.fca.1.insert
}